target datalayout = "e-m:e-p270:32:32-p271:32:32-p272:64:64-i64:64-i128:128-f80:128-n8:16:32:64-S128"
target triple = "x86_64-pc-linux-gnu"

%struct.AVProbeData = type { ptr, ptr, i32, ptr }

; Function Attrs: alwaysinline nounwind willreturn memory(none) uwtable
define internal i32 @av_popcount_c(i32 noundef %0) #10 {
  %2 = alloca i32, align 4
  store i32 %0, ptr %2, align 4, !tbaa !28
  %3 = load i32, ptr %2, align 4, !tbaa !28
  %4 = lshr i32 %3, 1
  %5 = and i32 %4, 1431655765
  %6 = load i32, ptr %2, align 4, !tbaa !28
  %7 = sub i32 %6, %5
  store i32 %7, ptr %2, align 4, !tbaa !28
  %8 = load i32, ptr %2, align 4, !tbaa !28
  %9 = and i32 %8, 858993459
  %10 = load i32, ptr %2, align 4, !tbaa !28
  %11 = lshr i32 %10, 2
  %12 = and i32 %11, 858993459
  %13 = add i32 %9, %12
  store i32 %13, ptr %2, align 4, !tbaa !28
  %14 = load i32, ptr %2, align 4, !tbaa !28
  %15 = load i32, ptr %2, align 4, !tbaa !28
  %16 = lshr i32 %15, 4
  %17 = add i32 %14, %16
  %18 = and i32 %17, 252645135
  store i32 %18, ptr %2, align 4, !tbaa !28
  %19 = load i32, ptr %2, align 4, !tbaa !28
  %20 = lshr i32 %19, 8
  %21 = load i32, ptr %2, align 4, !tbaa !28
  %22 = add i32 %21, %20
  store i32 %22, ptr %2, align 4, !tbaa !28
  %23 = load i32, ptr %2, align 4, !tbaa !28
  %24 = load i32, ptr %2, align 4, !tbaa !28
  %25 = lshr i32 %24, 16
  %26 = add i32 %23, %25
  %27 = and i32 %26, 63
  ret i32 %27
}

; Function Attrs: alwaysinline nounwind willreturn memory(none) uwtable
define internal i32 @av_bswap32(i32 noundef %0) #10 {
  %2 = alloca i32, align 4
  store i32 %0, ptr %2, align 4, !tbaa !28
  %3 = load i32, ptr %2, align 4, !tbaa !28
  %4 = shl i32 %3, 8
  %5 = and i32 %4, 65280
  %6 = load i32, ptr %2, align 4, !tbaa !28
  %7 = lshr i32 %6, 8
  %8 = and i32 %7, 255
  %9 = or i32 %5, %8
  %10 = shl i32 %9, 16
  %11 = load i32, ptr %2, align 4, !tbaa !28
  %12 = lshr i32 %11, 16
  %13 = shl i32 %12, 8
  %14 = and i32 %13, 65280
  %15 = load i32, ptr %2, align 4, !tbaa !28
  %16 = lshr i32 %15, 16
  %17 = lshr i32 %16, 8
  %18 = and i32 %17, 255
  %19 = or i32 %14, %18
  %20 = or i32 %10, %19
  ret i32 %20
}

; Function Attrs: nounwind uwtable
define internal i32 @xwd_probe(ptr noundef %0) #0 {
  %2 = alloca i32, align 4
  %3 = alloca ptr, align 8
  %4 = alloca ptr, align 8
  %5 = alloca i32, align 4
  %6 = alloca i32, align 4
  %7 = alloca i32, align 4
  %8 = alloca i32, align 4
  %9 = alloca i32, align 4
  store ptr %0, ptr %3, align 8, !tbaa !139
  call void @llvm.lifetime.start.p0(i64 8, ptr %4) #12
  %10 = load ptr, ptr %3, align 8, !tbaa !139
  %11 = getelementptr inbounds nuw %struct.AVProbeData, ptr %10, i32 0, i32 1
  %12 = load ptr, ptr %11, align 8, !tbaa !96
  store ptr %12, ptr %4, align 8, !tbaa !76
  call void @llvm.lifetime.start.p0(i64 4, ptr %5) #12
  call void @llvm.lifetime.start.p0(i64 4, ptr %6) #12
  call void @llvm.lifetime.start.p0(i64 4, ptr %7) #12
  call void @llvm.lifetime.start.p0(i64 4, ptr %8) #12
  %13 = load ptr, ptr %3, align 8, !tbaa !139
  %14 = getelementptr inbounds nuw %struct.AVProbeData, ptr %13, i32 0, i32 2
  %15 = load i32, ptr %14, align 8, !tbaa !97
  %16 = icmp slt i32 %15, 100
  br i1 %16, label %116, label %17

17:                                               ; preds = %1
  %18 = load ptr, ptr %4, align 8, !tbaa !76
  %19 = load i32, ptr %18, align 1, !tbaa !77
  %20 = call i32 @av_bswap32(i32 noundef %19) #15
  %21 = icmp ult i32 %20, 100
  br i1 %21, label %116, label %22

22:                                               ; preds = %17
  %23 = load ptr, ptr %4, align 8, !tbaa !76
  %24 = getelementptr inbounds i8, ptr %23, i64 4
  %25 = load i32, ptr %24, align 1, !tbaa !77
  %26 = call i32 @av_bswap32(i32 noundef %25) #15
  %27 = icmp ne i32 %26, 7
  br i1 %27, label %116, label %28

28:                                               ; preds = %22
  %29 = load ptr, ptr %4, align 8, !tbaa !76
  %30 = getelementptr inbounds i8, ptr %29, i64 8
  %31 = load i32, ptr %30, align 1, !tbaa !77
  %32 = call i32 @av_bswap32(i32 noundef %31) #15
  %33 = icmp ne i32 %32, 2
  br i1 %33, label %116, label %34

34:                                               ; preds = %28
  %35 = load ptr, ptr %4, align 8, !tbaa !76
  %36 = getelementptr inbounds i8, ptr %35, i64 12
  %37 = load i32, ptr %36, align 1, !tbaa !77
  %38 = call i32 @av_bswap32(i32 noundef %37) #15
  %39 = icmp ugt i32 %38, 32
  br i1 %39, label %116, label %40

40:                                               ; preds = %34
  %41 = load ptr, ptr %4, align 8, !tbaa !76
  %42 = getelementptr inbounds i8, ptr %41, i64 12
  %43 = load i32, ptr %42, align 1, !tbaa !77
  %44 = call i32 @av_bswap32(i32 noundef %43) #15
  %45 = icmp ne i32 %44, 0
  br i1 %45, label %46, label %116

46:                                               ; preds = %40
  %47 = load ptr, ptr %4, align 8, !tbaa !76
  %48 = getelementptr inbounds i8, ptr %47, i64 16
  %49 = load i32, ptr %48, align 1, !tbaa !77
  %50 = call i32 @av_bswap32(i32 noundef %49) #15
  %51 = icmp eq i32 %50, 0
  br i1 %51, label %116, label %52

52:                                               ; preds = %46
  %53 = load ptr, ptr %4, align 8, !tbaa !76
  %54 = getelementptr inbounds i8, ptr %53, i64 20
  %55 = load i32, ptr %54, align 1, !tbaa !77
  %56 = call i32 @av_bswap32(i32 noundef %55) #15
  %57 = icmp eq i32 %56, 0
  br i1 %57, label %116, label %58

58:                                               ; preds = %52
  %59 = load ptr, ptr %4, align 8, !tbaa !76
  %60 = getelementptr inbounds i8, ptr %59, i64 28
  %61 = load i32, ptr %60, align 1, !tbaa !77
  %62 = call i32 @av_bswap32(i32 noundef %61) #15
  %63 = icmp ugt i32 %62, 1
  br i1 %63, label %116, label %64

64:                                               ; preds = %58
  %65 = load ptr, ptr %4, align 8, !tbaa !76
  %66 = getelementptr inbounds i8, ptr %65, i64 32
  %67 = load i32, ptr %66, align 1, !tbaa !77
  %68 = call i32 @av_bswap32(i32 noundef %67) #15
  %69 = and i32 %68, -57
  %70 = icmp ne i32 %69, 0
  br i1 %70, label %116, label %71

71:                                               ; preds = %64
  %72 = load ptr, ptr %4, align 8, !tbaa !76
  %73 = getelementptr inbounds i8, ptr %72, i64 32
  %74 = load i32, ptr %73, align 1, !tbaa !77
  %75 = call i32 @av_bswap32(i32 noundef %74) #15
  %76 = call i32 @av_popcount_c(i32 noundef %75) #15
  %77 = icmp ne i32 %76, 1
  br i1 %77, label %116, label %78

78:                                               ; preds = %71
  %79 = load ptr, ptr %4, align 8, !tbaa !76
  %80 = getelementptr inbounds i8, ptr %79, i64 36
  %81 = load i32, ptr %80, align 1, !tbaa !77
  %82 = call i32 @av_bswap32(i32 noundef %81) #15
  %83 = icmp ugt i32 %82, 1
  br i1 %83, label %116, label %84

84:                                               ; preds = %78
  %85 = load ptr, ptr %4, align 8, !tbaa !76
  %86 = getelementptr inbounds i8, ptr %85, i64 40
  %87 = load i32, ptr %86, align 1, !tbaa !77
  %88 = call i32 @av_bswap32(i32 noundef %87) #15
  %89 = and i32 %88, -57
  %90 = icmp ne i32 %89, 0
  br i1 %90, label %116, label %91

91:                                               ; preds = %84
  %92 = load ptr, ptr %4, align 8, !tbaa !76
  %93 = getelementptr inbounds i8, ptr %92, i64 40
  %94 = load i32, ptr %93, align 1, !tbaa !77
  %95 = call i32 @av_bswap32(i32 noundef %94) #15
  %96 = call i32 @av_popcount_c(i32 noundef %95) #15
  %97 = icmp ne i32 %96, 1
  br i1 %97, label %116, label %98

98:                                               ; preds = %91
  %99 = load ptr, ptr %4, align 8, !tbaa !76
  %100 = getelementptr inbounds i8, ptr %99, i64 44
  %101 = load i32, ptr %100, align 1, !tbaa !77
  %102 = call i32 @av_bswap32(i32 noundef %101) #15
  %103 = icmp ugt i32 %102, 32
  br i1 %103, label %116, label %104

104:                                              ; preds = %98
  %105 = load ptr, ptr %4, align 8, !tbaa !76
  %106 = getelementptr inbounds i8, ptr %105, i64 44
  %107 = load i32, ptr %106, align 1, !tbaa !77
  %108 = call i32 @av_bswap32(i32 noundef %107) #15
  %109 = icmp ne i32 %108, 0
  br i1 %109, label %110, label %116

110:                                              ; preds = %104
  %111 = load ptr, ptr %4, align 8, !tbaa !76
  %112 = getelementptr inbounds i8, ptr %111, i64 68
  %113 = load i32, ptr %112, align 1, !tbaa !77
  %114 = call i32 @av_bswap32(i32 noundef %113) #15
  %115 = icmp ugt i32 %114, 256
  br i1 %115, label %116, label %117

116:                                              ; preds = %110, %104, %98, %91, %84, %78, %71, %64, %58, %52, %46, %40, %34, %28, %22, %17, %1
  store i32 0, ptr %2, align 4
  store i32 1, ptr %9, align 4
  br label %149

117:                                              ; preds = %110
  %118 = load ptr, ptr %4, align 8, !tbaa !76
  %119 = getelementptr inbounds i8, ptr %118, i64 16
  %120 = load i32, ptr %119, align 1, !tbaa !77
  %121 = call i32 @av_bswap32(i32 noundef %120) #15
  store i32 %121, ptr %5, align 4, !tbaa !28
  %122 = load ptr, ptr %4, align 8, !tbaa !76
  %123 = getelementptr inbounds i8, ptr %122, i64 40
  %124 = load i32, ptr %123, align 1, !tbaa !77
  %125 = call i32 @av_bswap32(i32 noundef %124) #15
  store i32 %125, ptr %7, align 4, !tbaa !28
  %126 = load ptr, ptr %4, align 8, !tbaa !76
  %127 = getelementptr inbounds i8, ptr %126, i64 44
  %128 = load i32, ptr %127, align 1, !tbaa !77
  %129 = call i32 @av_bswap32(i32 noundef %128) #15
  store i32 %129, ptr %6, align 4, !tbaa !28
  %130 = load ptr, ptr %4, align 8, !tbaa !76
  %131 = getelementptr inbounds i8, ptr %130, i64 48
  %132 = load i32, ptr %131, align 1, !tbaa !77
  %133 = call i32 @av_bswap32(i32 noundef %132) #15
  store i32 %133, ptr %8, align 4, !tbaa !28
  %134 = load i32, ptr %8, align 4, !tbaa !28
  %135 = load i32, ptr %5, align 4, !tbaa !28
  %136 = load i32, ptr %6, align 4, !tbaa !28
  %137 = mul i32 %135, %136
  %138 = load i32, ptr %7, align 4, !tbaa !28
  %139 = add i32 %137, %138
  %140 = sub i32 %139, 1
  %141 = load i32, ptr %7, align 4, !tbaa !28
  %142 = sub i32 %141, 1
  %143 = xor i32 %142, -1
  %144 = and i32 %140, %143
  %145 = lshr i32 %144, 3
  %146 = icmp ult i32 %134, %145
  br i1 %146, label %147, label %148

147:                                              ; preds = %117
  store i32 0, ptr %2, align 4
  store i32 1, ptr %9, align 4
  br label %149

148:                                              ; preds = %117
  store i32 51, ptr %2, align 4
  store i32 1, ptr %9, align 4
  br label %149

149:                                              ; preds = %148, %147, %116
  call void @llvm.lifetime.end.p0(i64 4, ptr %8) #12
  call void @llvm.lifetime.end.p0(i64 4, ptr %7) #12
  call void @llvm.lifetime.end.p0(i64 4, ptr %6) #12
  call void @llvm.lifetime.end.p0(i64 4, ptr %5) #12
  call void @llvm.lifetime.end.p0(i64 8, ptr %4) #12
  %150 = load i32, ptr %2, align 4
  ret i32 %150
}