; Function Attrs: mustprogress nofree norecurse nosync nounwind willreturn memory(read, inaccessiblemem: none) uwtable
define internal range(i32 0, 52) i32 @xwd_probe(ptr noundef readonly captures(none) %0) #8 {
  %2 = getelementptr inbounds nuw i8, ptr %0, i64 8
  %3 = load ptr, ptr %2, align 8, !tbaa !90
  %4 = getelementptr inbounds nuw i8, ptr %0, i64 16
  %5 = load i32, ptr %4, align 8, !tbaa !91
  %6 = icmp slt i32 %5, 100
  br i1 %6, label %104, label %7

7:                                                ; preds = %1
  %8 = load i32, ptr %3, align 1, !tbaa !68
  %9 = tail call i32 @llvm.bswap.i32(i32 %8)
  %10 = icmp ult i32 %9, 100
  br i1 %10, label %104, label %11

11:                                               ; preds = %7
  %12 = getelementptr inbounds nuw i8, ptr %3, i64 4
  %13 = load i32, ptr %12, align 1, !tbaa !68
  %.not = icmp eq i32 %13, 117440512
  br i1 %.not, label %14, label %104

14:                                               ; preds = %11
  %15 = getelementptr inbounds nuw i8, ptr %3, i64 8
  %16 = load i32, ptr %15, align 1, !tbaa !68
  %.not30 = icmp eq i32 %16, 33554432
  br i1 %.not30, label %17, label %104

17:                                               ; preds = %14
  %18 = getelementptr inbounds nuw i8, ptr %3, i64 12
  %19 = load i32, ptr %18, align 1, !tbaa !68
  %20 = tail call i32 @llvm.bswap.i32(i32 %19)
  %21 = icmp ugt i32 %20, 32
  %.not31 = icmp eq i32 %19, 0
  %or.cond = or i1 %.not31, %21
  br i1 %or.cond, label %104, label %22

22:                                               ; preds = %17
  %23 = getelementptr inbounds nuw i8, ptr %3, i64 16
  %24 = load i32, ptr %23, align 1, !tbaa !68
  %25 = tail call i32 @llvm.bswap.i32(i32 %24)
  %26 = icmp eq i32 %24, 0
  br i1 %26, label %104, label %27

27:                                               ; preds = %22
  %28 = getelementptr inbounds nuw i8, ptr %3, i64 20
  %29 = load i32, ptr %28, align 1, !tbaa !68
  %30 = icmp eq i32 %29, 0
  br i1 %30, label %104, label %31

31:                                               ; preds = %27
  %32 = getelementptr inbounds nuw i8, ptr %3, i64 28
  %33 = load i32, ptr %32, align 1, !tbaa !68
  %34 = tail call i32 @llvm.bswap.i32(i32 %33)
  %35 = icmp ugt i32 %34, 1
  br i1 %35, label %104, label %36

36:                                               ; preds = %31
  %37 = getelementptr inbounds nuw i8, ptr %3, i64 32
  %38 = load i32, ptr %37, align 1, !tbaa !68
  %39 = tail call i32 @llvm.bswap.i32(i32 %38)
  %40 = and i32 %39, -57
  %.not32 = icmp eq i32 %40, 0
  br i1 %.not32, label %41, label %104

41:                                               ; preds = %36
  %42 = lshr exact i32 %39, 1
  %43 = and i32 %42, 20
  %44 = sub nsw i32 %39, %43
  %45 = and i32 %44, 858993456
  %46 = lshr exact i32 %44, 2
  %47 = and i32 %46, 858993459
  %48 = add nuw nsw i32 %47, %45
  %49 = lshr i32 %48, 4
  %50 = add nuw nsw i32 %49, %48
  %51 = and i32 %50, 252645135
  %52 = lshr i32 %51, 8
  %53 = add nuw nsw i32 %52, %51
  %54 = lshr i32 %53, 16
  %55 = add nuw nsw i32 %54, %53
  %56 = and i32 %55, 63
  %.not33 = icmp eq i32 %56, 1
  br i1 %.not33, label %57, label %104

57:                                               ; preds = %41
  %58 = getelementptr inbounds nuw i8, ptr %3, i64 36
  %59 = load i32, ptr %58, align 1, !tbaa !68
  %60 = tail call i32 @llvm.bswap.i32(i32 %59)
  %61 = icmp ugt i32 %60, 1
  br i1 %61, label %104, label %62

62:                                               ; preds = %57
  %63 = getelementptr inbounds nuw i8, ptr %3, i64 40
  %64 = load i32, ptr %63, align 1, !tbaa !68
  %65 = tail call i32 @llvm.bswap.i32(i32 %64)
  %66 = and i32 %65, -57
  %.not34 = icmp eq i32 %66, 0
  br i1 %.not34, label %67, label %104

67:                                               ; preds = %62
  %68 = lshr exact i32 %65, 1
  %69 = and i32 %68, 20
  %70 = sub nsw i32 %65, %69
  %71 = and i32 %70, 858993456
  %72 = lshr exact i32 %70, 2
  %73 = and i32 %72, 858993459
  %74 = add nuw nsw i32 %73, %71
  %75 = lshr i32 %74, 4
  %76 = add nuw nsw i32 %75, %74
  %77 = and i32 %76, 252645135
  %78 = lshr i32 %77, 8
  %79 = add nuw nsw i32 %78, %77
  %80 = lshr i32 %79, 16
  %81 = add nuw nsw i32 %80, %79
  %82 = and i32 %81, 63
  %.not35 = icmp eq i32 %82, 1
  br i1 %.not35, label %83, label %104

83:                                               ; preds = %67
  %84 = getelementptr inbounds nuw i8, ptr %3, i64 44
  %85 = load i32, ptr %84, align 1, !tbaa !68
  %86 = tail call i32 @llvm.bswap.i32(i32 %85)
  %87 = icmp ugt i32 %86, 32
  %.not36 = icmp eq i32 %85, 0
  %or.cond37 = or i1 %.not36, %87
  br i1 %or.cond37, label %104, label %88

88:                                               ; preds = %83
  %89 = getelementptr inbounds nuw i8, ptr %3, i64 68
  %90 = load i32, ptr %89, align 1, !tbaa !68
  %91 = tail call i32 @llvm.bswap.i32(i32 %90)
  %92 = icmp ugt i32 %91, 256
  br i1 %92, label %104, label %93

93:                                               ; preds = %88
  %94 = getelementptr inbounds nuw i8, ptr %3, i64 48
  %95 = load i32, ptr %94, align 1, !tbaa !68
  %96 = tail call i32 @llvm.bswap.i32(i32 %95)
  %97 = mul i32 %86, %25
  %98 = add nsw i32 %65, -1
  %99 = add i32 %98, %97
  %100 = sub nsw i32 0, %65
  %101 = and i32 %99, %100
  %102 = lshr exact i32 %101, 3
  %103 = icmp ult i32 %96, %102
  %. = select i1 %103, i32 0, i32 51
  br label %104

104:                                              ; preds = %93, %1, %7, %11, %14, %17, %22, %27, %31, %36, %41, %57, %62, %67, %83, %88
  %.0 = phi i32 [ 0, %88 ], [ 0, %83 ], [ 0, %67 ], [ 0, %62 ], [ 0, %57 ], [ 0, %41 ], [ 0, %36 ], [ 0, %31 ], [ 0, %27 ], [ 0, %22 ], [ 0, %17 ], [ 0, %14 ], [ 0, %11 ], [ 0, %7 ], [ 0, %1 ], [ %., %93 ]
  ret i32 %.0
}